target datalayout = "e-m:e-p270:32:32-p271:32:32-p272:64:64-i64:64-i128:128-f80:128-n8:16:32:64-S128"
target triple = "x86_64-pc-linux-gnu"

@.str.5 = private unnamed_addr constant [117 x i8] c"generated/home/dtcxzyw/WorkSpace/Projects/compilers/llvm-opt-benchmark/bench/pbrt-v4/pbrt-v4/src/pbrt/util/image.cpp\00", align 1
@.str.7 = private unnamed_addr constant [38 x i8] c"Unhandled PixelFormat in TexelBytes()\00", align 1

; Function Attrs: mustprogress uwtable
define dso_local noundef i32 @_ZN4pbrt10TexelBytesENS_11PixelFormatE(i32 noundef %0) #1 {
  %2 = alloca i32, align 4
  %3 = alloca i32, align 4
  store i32 %0, ptr %3, align 4, !tbaa !31
  %4 = load i32, ptr %3, align 4, !tbaa !31
  switch i32 %4, label %8 [
    i32 0, label %5
    i32 1, label %6
    i32 2, label %7
  ]

5:                                                ; preds = %1
  store i32 1, ptr %2, align 4
  br label %9

6:                                                ; preds = %1
  store i32 2, ptr %2, align 4
  br label %9

7:                                                ; preds = %1
  store i32 4, ptr %2, align 4
  br label %9

8:                                                ; preds = %1
  call void @_ZN4pbrt8LogFatalENS_8LogLevelEPKciS2_(i32 noundef 2, ptr noundef @.str.5, i32 noundef 78, ptr noundef @.str.7) #28
  unreachable

9:                                                ; preds = %7, %6, %5
  %10 = load i32, ptr %2, align 4
  ret i32 %10
}