; Function Attrs: mustprogress uwtable
define dso_local noundef range(i32 1, 5) i32 @_ZN4pbrt10TexelBytesENS_11PixelFormatE(i32 noundef %0) local_unnamed_addr #8 {
  %2 = icmp ult i32 %0, 3
  br i1 %2, label %switch.lookup, label %3

3:                                                ; preds = %1
  tail call void @_ZN4pbrt8LogFatalENS_8LogLevelEPKciS2_(i32 noundef 2, ptr noundef nonnull @.str.5, i32 noundef 78, ptr noundef nonnull @.str.7) #37
  unreachable

switch.lookup:                                    ; preds = %1
  %4 = zext nneg i32 %0 to i64
  %switch.gep = getelementptr inbounds nuw [3 x i32], ptr @switch.table._ZN4pbrt10TexelBytesENS_11PixelFormatE, i64 0, i64 %4
  %switch.load = load i32, ptr %switch.gep, align 4
  ret i32 %switch.load
}